target datalayout = "e-m:e-p270:32:32-p271:32:32-p272:64:64-i64:64-i128:128-f80:128-n8:16:32:64-S128"
target triple = "x86_64-pc-linux-gnu"

%class.Moves = type { i32, i32, i32, i32, i32, i32, i32, i32, i32, [13 x %"struct.Moves::trackType"], ptr, [13 x [4 x %struct.movePlyType]], ptr, [13 x [4 x i32]], [13 x %"class.std::__cxx11::basic_string"], [13 x [4 x %"struct.Moves::moveStatType"]], [13 x [4 x %"struct.Moves::moveStatType"]], [13 x [4 x %"struct.Moves::moveStatsType"]], [13 x [4 x %"struct.Moves::moveStatsType"]], %"struct.Moves::moveStatsType", %"struct.Moves::moveStatsType", [16 x { i64, i64 }] }
%"struct.Moves::trackType" = type { i32, i32, [4 x i32], [4 x i32], %struct.trickDataType, [4 x %struct.extCard], [4 x i32], [4 x [4 x i32]], [4 x i32] }
%struct.trickDataType = type { [4 x i32], i32, i32, i32, i32, i32 }
%struct.extCard = type { i32, i32, i32 }
%struct.movePlyType = type { [14 x %struct.moveType], i32, i32 }
%struct.moveType = type { i32, i32, i32, i32 }
%"class.std::__cxx11::basic_string" = type { %"struct.std::__cxx11::basic_string<char>::_Alloc_hider", i64, %union.anon }
%"struct.std::__cxx11::basic_string<char>::_Alloc_hider" = type { ptr }
%union.anon = type { i64, [8 x i8] }
%"struct.Moves::moveStatType" = type { i32, i32, i32, i32 }
%"struct.Moves::moveStatsType" = type { i32, [13 x %"struct.Moves::moveStatType"] }
%struct.pos = type { [4 x [4 x i16]], [4 x i16], [4 x [4 x i8]], [4 x i32], [50 x [4 x i16]], [50 x i32], [50 x %struct.moveType], i32, i32, [4 x %struct.highCardType], [4 x %struct.highCardType] }
%struct.highCardType = type { i32, i32 }

@rho = external global [4 x i32], align 16
@relRank = external global [8192 x [15 x i8]], align 16
@partner = external global [4 x i32], align 16
@highestRank = external global [8192 x i32], align 16
@lowestRank = external global [8192 x i32], align 16

; Function Attrs: mustprogress nounwind uwtable
define void @_ZN5Moves21WeightAllocNTNotvoid1ERK3pos(ptr noundef nonnull align 8 dereferenceable(39992) %0, ptr noundef nonnull align 4 dereferenceable(1544) %1) #5 align 2 {
  %3 = alloca ptr, align 8
  %4 = alloca ptr, align 8
  %5 = alloca i32, align 4
  %6 = alloca i32, align 4
  %7 = alloca i32, align 4
  %8 = alloca i32, align 4
  %9 = alloca i32, align 4
  %10 = alloca i32, align 4
  %11 = alloca i32, align 4
  store ptr %0, ptr %3, align 8
  store ptr %1, ptr %4, align 8
  %12 = load ptr, ptr %3, align 8
  %13 = load ptr, ptr %4, align 8
  %14 = getelementptr inbounds nuw %struct.pos, ptr %13, i32 0, i32 0
  %15 = getelementptr inbounds nuw %class.Moves, ptr %12, i32 0, i32 0
  %16 = load i32, ptr %15, align 8
  %17 = sext i32 %16 to i64
  %18 = getelementptr inbounds [4 x i32], ptr @partner, i64 0, i64 %17
  %19 = load i32, ptr %18, align 4
  %20 = sext i32 %19 to i64
  %21 = getelementptr inbounds [4 x [4 x i16]], ptr %14, i64 0, i64 %20
  %22 = getelementptr inbounds nuw %class.Moves, ptr %12, i32 0, i32 1
  %23 = load i32, ptr %22, align 4
  %24 = sext i32 %23 to i64
  %25 = getelementptr inbounds [4 x i16], ptr %21, i64 0, i64 %24
  %26 = load i16, ptr %25, align 2
  %27 = zext i16 %26 to i64
  %28 = getelementptr inbounds [8192 x i32], ptr @highestRank, i64 0, i64 %27
  %29 = load i32, ptr %28, align 4
  store i32 %29, ptr %5, align 4
  %30 = load ptr, ptr %4, align 8
  %31 = getelementptr inbounds nuw %struct.pos, ptr %30, i32 0, i32 0
  %32 = getelementptr inbounds nuw %class.Moves, ptr %12, i32 0, i32 0
  %33 = load i32, ptr %32, align 8
  %34 = sext i32 %33 to i64
  %35 = getelementptr inbounds [4 x i32], ptr @rho, i64 0, i64 %34
  %36 = load i32, ptr %35, align 4
  %37 = sext i32 %36 to i64
  %38 = getelementptr inbounds [4 x [4 x i16]], ptr %31, i64 0, i64 %37
  %39 = getelementptr inbounds nuw %class.Moves, ptr %12, i32 0, i32 1
  %40 = load i32, ptr %39, align 4
  %41 = sext i32 %40 to i64
  %42 = getelementptr inbounds [4 x i16], ptr %38, i64 0, i64 %41
  %43 = load i16, ptr %42, align 2
  %44 = zext i16 %43 to i64
  %45 = getelementptr inbounds [8192 x i32], ptr @highestRank, i64 0, i64 %44
  %46 = load i32, ptr %45, align 4
  store i32 %46, ptr %6, align 4
  %47 = load i32, ptr %6, align 4
  %48 = getelementptr inbounds nuw %class.Moves, ptr %12, i32 0, i32 10
  %49 = load ptr, ptr %48, align 8
  %50 = getelementptr inbounds nuw %"struct.Moves::trackType", ptr %49, i32 0, i32 5
  %51 = getelementptr inbounds [4 x %struct.extCard], ptr %50, i64 0, i64 0
  %52 = getelementptr inbounds nuw %struct.extCard, ptr %51, i32 0, i32 1
  %53 = load i32, ptr %52, align 4
  %54 = icmp sgt i32 %47, %53
  br i1 %54, label %55, label %84

55:                                               ; preds = %2
  %56 = load i32, ptr %6, align 4
  %57 = load i32, ptr %5, align 4
  %58 = icmp sgt i32 %56, %57
  br i1 %58, label %59, label %84

59:                                               ; preds = %55
  store i32 0, ptr %7, align 4
  br label %60

60:                                               ; preds = %80, %59
  %61 = load i32, ptr %7, align 4
  %62 = getelementptr inbounds nuw %class.Moves, ptr %12, i32 0, i32 7
  %63 = load i32, ptr %62, align 4
  %64 = icmp slt i32 %61, %63
  br i1 %64, label %65, label %83

65:                                               ; preds = %60
  %66 = getelementptr inbounds nuw %class.Moves, ptr %12, i32 0, i32 12
  %67 = load ptr, ptr %66, align 8
  %68 = load i32, ptr %7, align 4
  %69 = sext i32 %68 to i64
  %70 = getelementptr inbounds %struct.moveType, ptr %67, i64 %69
  %71 = getelementptr inbounds nuw %struct.moveType, ptr %70, i32 0, i32 1
  %72 = load i32, ptr %71, align 4
  %73 = sub nsw i32 0, %72
  %74 = getelementptr inbounds nuw %class.Moves, ptr %12, i32 0, i32 12
  %75 = load ptr, ptr %74, align 8
  %76 = load i32, ptr %7, align 4
  %77 = sext i32 %76 to i64
  %78 = getelementptr inbounds %struct.moveType, ptr %75, i64 %77
  %79 = getelementptr inbounds nuw %struct.moveType, ptr %78, i32 0, i32 3
  store i32 %73, ptr %79, align 4
  br label %80

80:                                               ; preds = %65
  %81 = load i32, ptr %7, align 4
  %82 = add nsw i32 %81, 1
  store i32 %82, ptr %7, align 4
  br label %60, !llvm.loop !9

83:                                               ; preds = %60
  br label %278

84:                                               ; preds = %55, %2
  %85 = load ptr, ptr %4, align 8
  %86 = getelementptr inbounds nuw %struct.pos, ptr %85, i32 0, i32 0
  %87 = getelementptr inbounds nuw %class.Moves, ptr %12, i32 0, i32 0
  %88 = load i32, ptr %87, align 8
  %89 = sext i32 %88 to i64
  %90 = getelementptr inbounds [4 x i32], ptr @partner, i64 0, i64 %89
  %91 = load i32, ptr %90, align 4
  %92 = sext i32 %91 to i64
  %93 = getelementptr inbounds [4 x [4 x i16]], ptr %86, i64 0, i64 %92
  %94 = getelementptr inbounds nuw %class.Moves, ptr %12, i32 0, i32 1
  %95 = load i32, ptr %94, align 4
  %96 = sext i32 %95 to i64
  %97 = getelementptr inbounds [4 x i16], ptr %93, i64 0, i64 %96
  %98 = load i16, ptr %97, align 2
  %99 = zext i16 %98 to i64
  %100 = getelementptr inbounds [8192 x i32], ptr @lowestRank, i64 0, i64 %99
  %101 = load i32, ptr %100, align 4
  store i32 %101, ptr %8, align 4
  %102 = load ptr, ptr %4, align 8
  %103 = getelementptr inbounds nuw %struct.pos, ptr %102, i32 0, i32 0
  %104 = getelementptr inbounds nuw %class.Moves, ptr %12, i32 0, i32 0
  %105 = load i32, ptr %104, align 8
  %106 = sext i32 %105 to i64
  %107 = getelementptr inbounds [4 x i32], ptr @rho, i64 0, i64 %106
  %108 = load i32, ptr %107, align 4
  %109 = sext i32 %108 to i64
  %110 = getelementptr inbounds [4 x [4 x i16]], ptr %103, i64 0, i64 %109
  %111 = getelementptr inbounds nuw %class.Moves, ptr %12, i32 0, i32 1
  %112 = load i32, ptr %111, align 4
  %113 = sext i32 %112 to i64
  %114 = getelementptr inbounds [4 x i16], ptr %110, i64 0, i64 %113
  %115 = load i16, ptr %114, align 2
  %116 = zext i16 %115 to i64
  %117 = getelementptr inbounds [8192 x i32], ptr @lowestRank, i64 0, i64 %116
  %118 = load i32, ptr %117, align 4
  store i32 %118, ptr %9, align 4
  store i32 0, ptr %10, align 4
  br label %119

119:                                              ; preds = %274, %84
  %120 = load i32, ptr %10, align 4
  %121 = getelementptr inbounds nuw %class.Moves, ptr %12, i32 0, i32 7
  %122 = load i32, ptr %121, align 4
  %123 = icmp slt i32 %120, %122
  br i1 %123, label %124, label %277

124:                                              ; preds = %119
  %125 = load ptr, ptr %4, align 8
  %126 = getelementptr inbounds nuw %struct.pos, ptr %125, i32 0, i32 1
  %127 = getelementptr inbounds nuw %class.Moves, ptr %12, i32 0, i32 1
  %128 = load i32, ptr %127, align 4
  %129 = sext i32 %128 to i64
  %130 = getelementptr inbounds [4 x i16], ptr %126, i64 0, i64 %129
  %131 = load i16, ptr %130, align 2
  %132 = zext i16 %131 to i64
  %133 = getelementptr inbounds [8192 x [15 x i8]], ptr @relRank, i64 0, i64 %132
  %134 = getelementptr inbounds nuw %class.Moves, ptr %12, i32 0, i32 12
  %135 = load ptr, ptr %134, align 8
  %136 = load i32, ptr %10, align 4
  %137 = sext i32 %136 to i64
  %138 = getelementptr inbounds %struct.moveType, ptr %135, i64 %137
  %139 = getelementptr inbounds nuw %struct.moveType, ptr %138, i32 0, i32 1
  %140 = load i32, ptr %139, align 4
  %141 = sext i32 %140 to i64
  %142 = getelementptr inbounds [15 x i8], ptr %133, i64 0, i64 %141
  %143 = load i8, ptr %142, align 1
  %144 = sext i8 %143 to i32
  store i32 %144, ptr %11, align 4
  %145 = getelementptr inbounds nuw %class.Moves, ptr %12, i32 0, i32 12
  %146 = load ptr, ptr %145, align 8
  %147 = load i32, ptr %10, align 4
  %148 = sext i32 %147 to i64
  %149 = getelementptr inbounds %struct.moveType, ptr %146, i64 %148
  %150 = getelementptr inbounds nuw %struct.moveType, ptr %149, i32 0, i32 1
  %151 = load i32, ptr %150, align 4
  %152 = getelementptr inbounds nuw %class.Moves, ptr %12, i32 0, i32 10
  %153 = load ptr, ptr %152, align 8
  %154 = getelementptr inbounds nuw %"struct.Moves::trackType", ptr %153, i32 0, i32 5
  %155 = getelementptr inbounds [4 x %struct.extCard], ptr %154, i64 0, i64 0
  %156 = getelementptr inbounds nuw %struct.extCard, ptr %155, i32 0, i32 1
  %157 = load i32, ptr %156, align 4
  %158 = icmp sgt i32 %151, %157
  br i1 %158, label %159, label %184

159:                                              ; preds = %124
  %160 = getelementptr inbounds nuw %class.Moves, ptr %12, i32 0, i32 12
  %161 = load ptr, ptr %160, align 8
  %162 = load i32, ptr %10, align 4
  %163 = sext i32 %162 to i64
  %164 = getelementptr inbounds %struct.moveType, ptr %161, i64 %163
  %165 = getelementptr inbounds nuw %struct.moveType, ptr %164, i32 0, i32 1
  %166 = load i32, ptr %165, align 4
  %167 = load i32, ptr %5, align 4
  %168 = icmp sgt i32 %166, %167
  br i1 %168, label %169, label %184

169:                                              ; preds = %159
  %170 = getelementptr inbounds nuw %class.Moves, ptr %12, i32 0, i32 12
  %171 = load ptr, ptr %170, align 8
  %172 = load i32, ptr %10, align 4
  %173 = sext i32 %172 to i64
  %174 = getelementptr inbounds %struct.moveType, ptr %171, i64 %173
  %175 = getelementptr inbounds nuw %struct.moveType, ptr %174, i32 0, i32 1
  %176 = load i32, ptr %175, align 4
  %177 = sub nsw i32 81, %176
  %178 = getelementptr inbounds nuw %class.Moves, ptr %12, i32 0, i32 12
  %179 = load ptr, ptr %178, align 8
  %180 = load i32, ptr %10, align 4
  %181 = sext i32 %180 to i64
  %182 = getelementptr inbounds %struct.moveType, ptr %179, i64 %181
  %183 = getelementptr inbounds nuw %struct.moveType, ptr %182, i32 0, i32 3
  store i32 %177, ptr %183, align 4
  br label %273

184:                                              ; preds = %159, %124
  %185 = load i32, ptr %8, align 4
  %186 = getelementptr inbounds nuw %class.Moves, ptr %12, i32 0, i32 12
  %187 = load ptr, ptr %186, align 8
  %188 = load i32, ptr %10, align 4
  %189 = sext i32 %188 to i64
  %190 = getelementptr inbounds %struct.moveType, ptr %187, i64 %189
  %191 = getelementptr inbounds nuw %struct.moveType, ptr %190, i32 0, i32 1
  %192 = load i32, ptr %191, align 4
  %193 = icmp sgt i32 %185, %192
  br i1 %193, label %204, label %194

194:                                              ; preds = %184
  %195 = load i32, ptr %9, align 4
  %196 = getelementptr inbounds nuw %class.Moves, ptr %12, i32 0, i32 12
  %197 = load ptr, ptr %196, align 8
  %198 = load i32, ptr %10, align 4
  %199 = sext i32 %198 to i64
  %200 = getelementptr inbounds %struct.moveType, ptr %197, i64 %199
  %201 = getelementptr inbounds nuw %struct.moveType, ptr %200, i32 0, i32 1
  %202 = load i32, ptr %201, align 4
  %203 = icmp sgt i32 %195, %202
  br i1 %203, label %204, label %213

204:                                              ; preds = %194, %184
  %205 = load i32, ptr %11, align 4
  %206 = add nsw i32 -3, %205
  %207 = getelementptr inbounds nuw %class.Moves, ptr %12, i32 0, i32 12
  %208 = load ptr, ptr %207, align 8
  %209 = load i32, ptr %10, align 4
  %210 = sext i32 %209 to i64
  %211 = getelementptr inbounds %struct.moveType, ptr %208, i64 %210
  %212 = getelementptr inbounds nuw %struct.moveType, ptr %211, i32 0, i32 3
  store i32 %206, ptr %212, align 4
  br label %272

213:                                              ; preds = %194
  %214 = getelementptr inbounds nuw %class.Moves, ptr %12, i32 0, i32 12
  %215 = load ptr, ptr %214, align 8
  %216 = load i32, ptr %10, align 4
  %217 = sext i32 %216 to i64
  %218 = getelementptr inbounds %struct.moveType, ptr %215, i64 %217
  %219 = getelementptr inbounds nuw %struct.moveType, ptr %218, i32 0, i32 1
  %220 = load i32, ptr %219, align 4
  %221 = getelementptr inbounds nuw %class.Moves, ptr %12, i32 0, i32 10
  %222 = load ptr, ptr %221, align 8
  %223 = getelementptr inbounds nuw %"struct.Moves::trackType", ptr %222, i32 0, i32 5
  %224 = getelementptr inbounds [4 x %struct.extCard], ptr %223, i64 0, i64 0
  %225 = getelementptr inbounds nuw %struct.extCard, ptr %224, i32 0, i32 1
  %226 = load i32, ptr %225, align 4
  %227 = icmp slt i32 %220, %226
  br i1 %227, label %228, label %237

228:                                              ; preds = %213
  %229 = load i32, ptr %11, align 4
  %230 = add nsw i32 -11, %229
  %231 = getelementptr inbounds nuw %class.Moves, ptr %12, i32 0, i32 12
  %232 = load ptr, ptr %231, align 8
  %233 = load i32, ptr %10, align 4
  %234 = sext i32 %233 to i64
  %235 = getelementptr inbounds %struct.moveType, ptr %232, i64 %234
  %236 = getelementptr inbounds nuw %struct.moveType, ptr %235, i32 0, i32 3
  store i32 %230, ptr %236, align 4
  br label %271

237:                                              ; preds = %213
  %238 = getelementptr inbounds nuw %class.Moves, ptr %12, i32 0, i32 12
  %239 = load ptr, ptr %238, align 8
  %240 = load i32, ptr %10, align 4
  %241 = sext i32 %240 to i64
  %242 = getelementptr inbounds %struct.moveType, ptr %239, i64 %241
  %243 = getelementptr inbounds nuw %struct.moveType, ptr %242, i32 0, i32 2
  %244 = load i32, ptr %243, align 4
  %245 = icmp ne i32 %244, 0
  br i1 %245, label %246, label %255

246:                                              ; preds = %237
  %247 = load i32, ptr %11, align 4
  %248 = add nsw i32 10, %247
  %249 = getelementptr inbounds nuw %class.Moves, ptr %12, i32 0, i32 12
  %250 = load ptr, ptr %249, align 8
  %251 = load i32, ptr %10, align 4
  %252 = sext i32 %251 to i64
  %253 = getelementptr inbounds %struct.moveType, ptr %250, i64 %252
  %254 = getelementptr inbounds nuw %struct.moveType, ptr %253, i32 0, i32 3
  store i32 %248, ptr %254, align 4
  br label %270

255:                                              ; preds = %237
  %256 = getelementptr inbounds nuw %class.Moves, ptr %12, i32 0, i32 12
  %257 = load ptr, ptr %256, align 8
  %258 = load i32, ptr %10, align 4
  %259 = sext i32 %258 to i64
  %260 = getelementptr inbounds %struct.moveType, ptr %257, i64 %259
  %261 = getelementptr inbounds nuw %struct.moveType, ptr %260, i32 0, i32 1
  %262 = load i32, ptr %261, align 4
  %263 = sub nsw i32 13, %262
  %264 = getelementptr inbounds nuw %class.Moves, ptr %12, i32 0, i32 12
  %265 = load ptr, ptr %264, align 8
  %266 = load i32, ptr %10, align 4
  %267 = sext i32 %266 to i64
  %268 = getelementptr inbounds %struct.moveType, ptr %265, i64 %267
  %269 = getelementptr inbounds nuw %struct.moveType, ptr %268, i32 0, i32 3
  store i32 %263, ptr %269, align 4
  br label %270

270:                                              ; preds = %255, %246
  br label %271

271:                                              ; preds = %270, %228
  br label %272

272:                                              ; preds = %271, %204
  br label %273

273:                                              ; preds = %272, %169
  br label %274

274:                                              ; preds = %273
  %275 = load i32, ptr %10, align 4
  %276 = add nsw i32 %275, 1
  store i32 %276, ptr %10, align 4
  br label %119, !llvm.loop !10

277:                                              ; preds = %119
  br label %278

278:                                              ; preds = %277, %83
  ret void
}