; Function Attrs: mustprogress nofree norecurse nosync nounwind memory(readwrite, inaccessiblemem: none) uwtable
define void @_ZN5Moves21WeightAllocNTNotvoid1ERK3pos(ptr nocapture noundef nonnull readonly align 8 dereferenceable(39992) %0, ptr nocapture noundef nonnull readonly align 4 dereferenceable(1544) %1) #4 align 2 {
  %3 = load i32, ptr %0, align 8
  %4 = sext i32 %3 to i64
  %5 = getelementptr inbounds [4 x i32], ptr @partner, i64 0, i64 %4
  %6 = load i32, ptr %5, align 4
  %7 = sext i32 %6 to i64
  %8 = getelementptr inbounds nuw i8, ptr %0, i64 4
  %9 = load i32, ptr %8, align 4
  %10 = sext i32 %9 to i64
  %11 = getelementptr inbounds [4 x [4 x i16]], ptr %1, i64 0, i64 %7, i64 %10
  %12 = load i16, ptr %11, align 2
  %13 = zext i16 %12 to i64
  %14 = getelementptr inbounds [8192 x i32], ptr @highestRank, i64 0, i64 %13
  %15 = load i32, ptr %14, align 4
  %16 = getelementptr inbounds [4 x i32], ptr @rho, i64 0, i64 %4
  %17 = load i32, ptr %16, align 4
  %18 = sext i32 %17 to i64
  %19 = getelementptr inbounds [4 x [4 x i16]], ptr %1, i64 0, i64 %18, i64 %10
  %20 = load i16, ptr %19, align 2
  %21 = zext i16 %20 to i64
  %22 = getelementptr inbounds [8192 x i32], ptr @highestRank, i64 0, i64 %21
  %23 = load i32, ptr %22, align 4
  %24 = getelementptr inbounds nuw i8, ptr %0, i64 2896
  %25 = load ptr, ptr %24, align 8
  %26 = getelementptr inbounds i8, ptr %25, i64 80
  %27 = load i32, ptr %26, align 4
  %28 = icmp sgt i32 %23, %27
  %29 = icmp sgt i32 %23, %15
  %or.cond = select i1 %28, i1 %29, i1 false
  br i1 %or.cond, label %.preheader, label %44

.preheader:                                       ; preds = %2
  %30 = getelementptr inbounds nuw i8, ptr %0, i64 28
  %31 = load i32, ptr %30, align 4
  %32 = icmp sgt i32 %31, 0
  br i1 %32, label %.lr.ph43, label %.loopexit

.lr.ph43:                                         ; preds = %.preheader
  %33 = getelementptr inbounds nuw i8, ptr %0, i64 14968
  br label %34

34:                                               ; preds = %.lr.ph43, %34
  %indvars.iv46 = phi i64 [ 0, %.lr.ph43 ], [ %indvars.iv.next47, %34 ]
  %35 = load ptr, ptr %33, align 8
  %36 = getelementptr inbounds %struct.moveType, ptr %35, i64 %indvars.iv46
  %37 = getelementptr inbounds nuw i8, ptr %36, i64 4
  %38 = load i32, ptr %37, align 4
  %39 = sub nsw i32 0, %38
  %40 = getelementptr inbounds nuw i8, ptr %36, i64 12
  store i32 %39, ptr %40, align 4
  %indvars.iv.next47 = add nuw nsw i64 %indvars.iv46, 1
  %41 = load i32, ptr %30, align 4
  %42 = sext i32 %41 to i64
  %43 = icmp slt i64 %indvars.iv.next47, %42
  br i1 %43, label %34, label %.loopexit, !llvm.loop !9

44:                                               ; preds = %2
  %45 = getelementptr inbounds [8192 x i32], ptr @lowestRank, i64 0, i64 %13
  %46 = load i32, ptr %45, align 4
  %47 = getelementptr inbounds [8192 x i32], ptr @lowestRank, i64 0, i64 %21
  %48 = load i32, ptr %47, align 4
  %49 = getelementptr inbounds nuw i8, ptr %0, i64 28
  %.fr = freeze i32 %48
  %invariant.smax = tail call i32 @llvm.smax.i32(i32 %46, i32 %.fr)
  %50 = load i32, ptr %49, align 4
  %51 = icmp sgt i32 %50, 0
  br i1 %51, label %.lr.ph, label %.loopexit

.lr.ph:                                           ; preds = %44
  %52 = getelementptr inbounds nuw i8, ptr %1, i64 32
  %53 = getelementptr inbounds nuw i8, ptr %0, i64 14968
  br label %54

54:                                               ; preds = %.lr.ph, %93
  %indvars.iv = phi i64 [ 0, %.lr.ph ], [ %indvars.iv.next, %93 ]
  %55 = load i32, ptr %8, align 4
  %56 = sext i32 %55 to i64
  %57 = getelementptr inbounds [4 x i16], ptr %52, i64 0, i64 %56
  %58 = load i16, ptr %57, align 2
  %59 = zext i16 %58 to i64
  %60 = load ptr, ptr %53, align 8
  %61 = getelementptr inbounds %struct.moveType, ptr %60, i64 %indvars.iv
  %62 = getelementptr inbounds nuw i8, ptr %61, i64 4
  %63 = load i32, ptr %62, align 4
  %64 = sext i32 %63 to i64
  %65 = getelementptr inbounds [8192 x [15 x i8]], ptr @relRank, i64 0, i64 %59, i64 %64
  %66 = load i8, ptr %65, align 1
  %67 = sext i8 %66 to i32
  %68 = load ptr, ptr %24, align 8
  %69 = getelementptr inbounds i8, ptr %68, i64 80
  %70 = load i32, ptr %69, align 4
  %71 = icmp sgt i32 %63, %70
  %72 = icmp sgt i32 %63, %15
  %or.cond38 = select i1 %71, i1 %72, i1 false
  br i1 %or.cond38, label %73, label %76

73:                                               ; preds = %54
  %74 = sub nsw i32 81, %63
  %75 = getelementptr inbounds nuw i8, ptr %61, i64 12
  store i32 %74, ptr %75, align 4
  br label %93

76:                                               ; preds = %54
  %or.cond39 = icmp slt i32 %63, %invariant.smax
  br i1 %or.cond39, label %77, label %80

77:                                               ; preds = %76
  %78 = add nsw i32 %67, -3
  %79 = getelementptr inbounds %struct.moveType, ptr %60, i64 %indvars.iv, i32 3
  store i32 %78, ptr %79, align 4
  br label %93

80:                                               ; preds = %76
  %81 = icmp slt i32 %63, %70
  br i1 %81, label %82, label %85

82:                                               ; preds = %80
  %83 = add nsw i32 %67, -11
  %84 = getelementptr inbounds nuw i8, ptr %61, i64 12
  store i32 %83, ptr %84, align 4
  br label %93

85:                                               ; preds = %80
  %86 = getelementptr inbounds nuw i8, ptr %61, i64 8
  %87 = load i32, ptr %86, align 4
  %.not = icmp eq i32 %87, 0
  %88 = getelementptr inbounds nuw i8, ptr %61, i64 12
  br i1 %.not, label %91, label %89

89:                                               ; preds = %85
  %90 = add nsw i32 %67, 10
  store i32 %90, ptr %88, align 4
  br label %93

91:                                               ; preds = %85
  %92 = sub nsw i32 13, %63
  store i32 %92, ptr %88, align 4
  br label %93

93:                                               ; preds = %73, %82, %91, %89, %77
  %indvars.iv.next = add nuw nsw i64 %indvars.iv, 1
  %94 = load i32, ptr %49, align 4
  %95 = sext i32 %94 to i64
  %96 = icmp slt i64 %indvars.iv.next, %95
  br i1 %96, label %54, label %.loopexit, !llvm.loop !10

.loopexit:                                        ; preds = %93, %34, %44, %.preheader
  ret void
}